; Function Attrs: mustprogress nounwind uwtable
define void @_ZN8proxygen21RequestHandlerAdaptor14onEgressPausedEv(ptr nocapture noundef nonnull readonly align 8 dereferenceable(36) %this) unnamed_addr #4 align 2 {
entry:
  %upstream_ = getelementptr inbounds i8, ptr %this, i64 16
  %0 = load ptr, ptr %upstream_, align 8
  %tobool.not = icmp eq ptr %0, null
  br i1 %tobool.not, label %return, label %if.end

if.end:                                           ; preds = %entry
  %vtable = load ptr, ptr %0, align 8
  %vfn = getelementptr inbounds i8, ptr %vtable, i64 64
  %1 = load ptr, ptr %vfn, align 8
  tail call void %1(ptr noundef nonnull align 8 dereferenceable(16) %0) #19
  br label %return

return:                                           ; preds = %entry, %if.end
  ret void
}